target datalayout = "e-m:e-p270:32:32-p271:32:32-p272:64:64-i64:64-i128:128-f80:128-n8:16:32:64-S128"
target triple = "x86_64-pc-linux-gnu"

%struct.mpd_t = type { i8, i64, i64, i64, i64, ptr }

@mpd_mallocfunc = hidden global ptr @malloc, align 8

; Function Attrs: inlinehint nounwind uwtable
define internal void @_mpd_mul_words(ptr noundef %0, ptr noundef %1, i64 noundef %2, i64 noundef %3) #6 {
  %5 = alloca ptr, align 8
  %6 = alloca ptr, align 8
  %7 = alloca i64, align 8
  %8 = alloca i64, align 8
  %9 = alloca i128, align 16
  store ptr %0, ptr %5, align 8, !tbaa !9
  store ptr %1, ptr %6, align 8, !tbaa !9
  store i64 %2, ptr %7, align 8, !tbaa !3
  store i64 %3, ptr %8, align 8, !tbaa !3
  call void @llvm.lifetime.start.p0(i64 16, ptr %9) #10
  %10 = load i64, ptr %7, align 8, !tbaa !3
  %11 = zext i64 %10 to i128
  %12 = load i64, ptr %8, align 8, !tbaa !3
  %13 = zext i64 %12 to i128
  %14 = mul i128 %11, %13
  store i128 %14, ptr %9, align 16, !tbaa !29
  %15 = load i128, ptr %9, align 16, !tbaa !29
  %16 = lshr i128 %15, 64
  %17 = trunc i128 %16 to i64
  %18 = load ptr, ptr %5, align 8, !tbaa !9
  store i64 %17, ptr %18, align 8, !tbaa !3
  %19 = load i128, ptr %9, align 16, !tbaa !29
  %20 = trunc i128 %19 to i64
  %21 = load ptr, ptr %6, align 8, !tbaa !9
  store i64 %20, ptr %21, align 8, !tbaa !3
  call void @llvm.lifetime.end.p0(i64 16, ptr %9) #10
  ret void
}

; Function Attrs: inlinehint nounwind uwtable
define internal i64 @mul_size_t_overflow(i64 noundef %0, i64 noundef %1, ptr noundef %2) #6 {
  %4 = alloca i64, align 8
  %5 = alloca i64, align 8
  %6 = alloca ptr, align 8
  %7 = alloca i64, align 8
  %8 = alloca i64, align 8
  store i64 %0, ptr %4, align 8, !tbaa !3
  store i64 %1, ptr %5, align 8, !tbaa !3
  store ptr %2, ptr %6, align 8, !tbaa !9
  call void @llvm.lifetime.start.p0(i64 8, ptr %7) #10
  call void @llvm.lifetime.start.p0(i64 8, ptr %8) #10
  %9 = load i64, ptr %4, align 8, !tbaa !3
  %10 = load i64, ptr %5, align 8, !tbaa !3
  call void @_mpd_mul_words(ptr noundef %7, ptr noundef %8, i64 noundef %9, i64 noundef %10)
  %11 = load i64, ptr %7, align 8, !tbaa !3
  %12 = load ptr, ptr %6, align 8, !tbaa !9
  store i64 %11, ptr %12, align 8, !tbaa !3
  %13 = load i64, ptr %8, align 8, !tbaa !3
  call void @llvm.lifetime.end.p0(i64 8, ptr %8) #10
  call void @llvm.lifetime.end.p0(i64 8, ptr %7) #10
  ret i64 %13
}

; Function Attrs: nounwind uwtable
define hidden ptr @mpd_alloc(i64 noundef %0, i64 noundef %1) #4 {
  %3 = alloca ptr, align 8
  %4 = alloca i64, align 8
  %5 = alloca i64, align 8
  %6 = alloca i64, align 8
  %7 = alloca i64, align 8
  %8 = alloca i32, align 4
  store i64 %0, ptr %4, align 8, !tbaa !3
  store i64 %1, ptr %5, align 8, !tbaa !3
  call void @llvm.lifetime.start.p0(i64 8, ptr %6) #10
  call void @llvm.lifetime.start.p0(i64 8, ptr %7) #10
  %9 = load i64, ptr %4, align 8, !tbaa !3
  %10 = load i64, ptr %5, align 8, !tbaa !3
  %11 = call i64 @mul_size_t_overflow(i64 noundef %9, i64 noundef %10, ptr noundef %7)
  store i64 %11, ptr %6, align 8, !tbaa !3
  %12 = load i64, ptr %7, align 8, !tbaa !3
  %13 = icmp ne i64 %12, 0
  br i1 %13, label %14, label %15

14:                                               ; preds = %2
  store ptr null, ptr %3, align 8
  store i32 1, ptr %8, align 4
  br label %19

15:                                               ; preds = %2
  %16 = load ptr, ptr @mpd_mallocfunc, align 8, !tbaa !7
  %17 = load i64, ptr %6, align 8, !tbaa !3
  %18 = call ptr %16(i64 noundef %17)
  store ptr %18, ptr %3, align 8
  store i32 1, ptr %8, align 4
  br label %19

19:                                               ; preds = %15, %14
  call void @llvm.lifetime.end.p0(i64 8, ptr %7) #10
  call void @llvm.lifetime.end.p0(i64 8, ptr %6) #10
  %20 = load ptr, ptr %3, align 8
  ret ptr %20
}

; Function Attrs: nounwind uwtable
define hidden i32 @mpd_switch_to_dyn_cxx(ptr noundef %0, i64 noundef %1) #4 {
  %3 = alloca i32, align 4
  %4 = alloca ptr, align 8
  %5 = alloca i64, align 8
  %6 = alloca ptr, align 8
  %7 = alloca i32, align 4
  store ptr %0, ptr %4, align 8, !tbaa !14
  store i64 %1, ptr %5, align 8, !tbaa !3
  call void @llvm.lifetime.start.p0(i64 8, ptr %6) #10
  %8 = load i64, ptr %5, align 8, !tbaa !3
  %9 = call ptr @mpd_alloc(i64 noundef %8, i64 noundef 8)
  store ptr %9, ptr %6, align 8, !tbaa !9
  %10 = load ptr, ptr %6, align 8, !tbaa !9
  %11 = icmp eq ptr %10, null
  br i1 %11, label %12, label %13

12:                                               ; preds = %2
  store i32 0, ptr %3, align 4
  store i32 1, ptr %7, align 4
  br label %29

13:                                               ; preds = %2
  %14 = load ptr, ptr %6, align 8, !tbaa !9
  %15 = load ptr, ptr %4, align 8, !tbaa !14
  %16 = getelementptr inbounds nuw %struct.mpd_t, ptr %15, i32 0, i32 5
  %17 = load ptr, ptr %16, align 8, !tbaa !16
  %18 = load ptr, ptr %4, align 8, !tbaa !14
  %19 = getelementptr inbounds nuw %struct.mpd_t, ptr %18, i32 0, i32 4
  %20 = load i64, ptr %19, align 8, !tbaa !22
  %21 = mul i64 %20, 8
  call void @llvm.memcpy.p0.p0.i64(ptr align 8 %14, ptr align 8 %17, i64 %21, i1 false)
  %22 = load ptr, ptr %6, align 8, !tbaa !9
  %23 = load ptr, ptr %4, align 8, !tbaa !14
  %24 = getelementptr inbounds nuw %struct.mpd_t, ptr %23, i32 0, i32 5
  store ptr %22, ptr %24, align 8, !tbaa !16
  %25 = load i64, ptr %5, align 8, !tbaa !3
  %26 = load ptr, ptr %4, align 8, !tbaa !14
  %27 = getelementptr inbounds nuw %struct.mpd_t, ptr %26, i32 0, i32 4
  store i64 %25, ptr %27, align 8, !tbaa !22
  %28 = load ptr, ptr %4, align 8, !tbaa !14
  call void @mpd_set_dynamic_data(ptr noundef %28)
  store i32 1, ptr %3, align 4
  store i32 1, ptr %7, align 4
  br label %29

29:                                               ; preds = %13, %12
  call void @llvm.lifetime.end.p0(i64 8, ptr %6) #10
  %30 = load i32, ptr %3, align 4
  ret i32 %30
}