; Function Attrs: nounwind uwtable
define hidden range(i32 0, 2) i32 @mpd_switch_to_dyn_cxx(ptr noundef %0, i64 noundef %1) local_unnamed_addr #4 {
  %3 = icmp ugt i64 %1, 2305843009213693951
  br i1 %3, label %mpd_alloc.exit.thread, label %mpd_alloc.exit

mpd_alloc.exit:                                   ; preds = %2
  %umul.value.i = shl nuw i64 %1, 3
  %4 = load ptr, ptr @mpd_mallocfunc, align 8, !tbaa !3
  %5 = tail call ptr %4(i64 noundef %umul.value.i) #9
  %6 = icmp eq ptr %5, null
  br i1 %6, label %mpd_alloc.exit.thread, label %7

7:                                                ; preds = %mpd_alloc.exit
  %8 = getelementptr inbounds nuw i8, ptr %0, i64 40
  %9 = load ptr, ptr %8, align 8, !tbaa !10
  %10 = getelementptr inbounds nuw i8, ptr %0, i64 32
  %11 = load i64, ptr %10, align 8, !tbaa !14
  %12 = shl i64 %11, 3
  tail call void @llvm.memcpy.p0.p0.i64(ptr nonnull align 8 %5, ptr align 8 %9, i64 %12, i1 false)
  store ptr %5, ptr %8, align 8, !tbaa !10
  store i64 %1, ptr %10, align 8, !tbaa !14
  tail call void @mpd_set_dynamic_data(ptr noundef %0) #9
  br label %mpd_alloc.exit.thread

mpd_alloc.exit.thread:                            ; preds = %2, %mpd_alloc.exit, %7
  %.0 = phi i32 [ 1, %7 ], [ 0, %mpd_alloc.exit ], [ 0, %2 ]
  ret i32 %.0
}